target datalayout = "e-m:e-p270:32:32-p271:32:32-p272:64:64-i64:64-i128:128-f80:128-n8:16:32:64-S128"
target triple = "x86_64-pc-linux-gnu"

%struct.BlockdevSnapshotSync = type { ptr, ptr, ptr, ptr, ptr, i8, i32 }
%struct.TransactionAction = type { i32, %union.anon.18 }
%union.anon.18 = type { %struct.AbortWrapper }
%struct.AbortWrapper = type { ptr }
%struct.BlockdevSnapshotSyncWrapper = type { ptr }
%struct.TransactionActionList = type { ptr, ptr }

; Function Attrs: nounwind sspstrong uwtable
define internal void @blockdev_do_action(ptr noundef %0, ptr noundef %1) #0 {
  %3 = alloca ptr, align 8
  %4 = alloca ptr, align 8
  %5 = alloca %struct.TransactionActionList, align 8
  store ptr %0, ptr %3, align 8
  store ptr %1, ptr %4, align 8
  call void @llvm.lifetime.start.p0(i64 16, ptr %5) #16
  call void @llvm.memset.p0.i64(ptr align 8 %5, i8 0, i64 16, i1 false), !annotation !4
  %6 = load ptr, ptr %3, align 8
  %7 = getelementptr inbounds nuw %struct.TransactionActionList, ptr %5, i32 0, i32 1
  store ptr %6, ptr %7, align 8
  %8 = getelementptr inbounds nuw %struct.TransactionActionList, ptr %5, i32 0, i32 0
  store ptr null, ptr %8, align 8
  %9 = load ptr, ptr %4, align 8
  call void @qmp_transaction(ptr noundef %5, ptr noundef null, ptr noundef %9)
  call void @llvm.lifetime.end.p0(i64 16, ptr %5) #16
  ret void
}

; Function Attrs: nounwind sspstrong uwtable
define dso_local void @qmp_blockdev_snapshot_sync(ptr noundef %0, ptr noundef %1, ptr noundef %2, ptr noundef %3, ptr noundef %4, i1 noundef zeroext %5, i32 noundef %6, ptr noundef %7) #0 {
  %9 = alloca ptr, align 8
  %10 = alloca ptr, align 8
  %11 = alloca ptr, align 8
  %12 = alloca ptr, align 8
  %13 = alloca ptr, align 8
  %14 = alloca i8, align 1
  %15 = alloca i32, align 4
  %16 = alloca ptr, align 8
  %17 = alloca %struct.BlockdevSnapshotSync, align 8
  %18 = alloca %struct.TransactionAction, align 8
  store ptr %0, ptr %9, align 8
  store ptr %1, ptr %10, align 8
  store ptr %2, ptr %11, align 8
  store ptr %3, ptr %12, align 8
  store ptr %4, ptr %13, align 8
  %19 = zext i1 %5 to i8
  store i8 %19, ptr %14, align 1
  store i32 %6, ptr %15, align 4
  store ptr %7, ptr %16, align 8
  call void @llvm.lifetime.start.p0(i64 48, ptr %17) #16
  call void @llvm.memset.p0.i64(ptr align 8 %17, i8 0, i64 48, i1 false), !annotation !4
  %20 = getelementptr inbounds nuw %struct.BlockdevSnapshotSync, ptr %17, i32 0, i32 0
  %21 = load ptr, ptr %9, align 8
  store ptr %21, ptr %20, align 8
  %22 = getelementptr inbounds nuw %struct.BlockdevSnapshotSync, ptr %17, i32 0, i32 1
  %23 = load ptr, ptr %10, align 8
  store ptr %23, ptr %22, align 8
  %24 = getelementptr inbounds nuw %struct.BlockdevSnapshotSync, ptr %17, i32 0, i32 2
  %25 = load ptr, ptr %11, align 8
  store ptr %25, ptr %24, align 8
  %26 = getelementptr inbounds nuw %struct.BlockdevSnapshotSync, ptr %17, i32 0, i32 3
  %27 = load ptr, ptr %12, align 8
  store ptr %27, ptr %26, align 8
  %28 = getelementptr inbounds nuw %struct.BlockdevSnapshotSync, ptr %17, i32 0, i32 4
  %29 = load ptr, ptr %13, align 8
  store ptr %29, ptr %28, align 8
  %30 = getelementptr inbounds nuw %struct.BlockdevSnapshotSync, ptr %17, i32 0, i32 5
  %31 = load i8, ptr %14, align 1, !range !7, !noundef !8
  %32 = trunc i8 %31 to i1
  %33 = zext i1 %32 to i8
  store i8 %33, ptr %30, align 8
  %34 = getelementptr i8, ptr %17, i64 41
  call void @llvm.memset.p0.i64(ptr align 1 %34, i8 0, i64 3, i1 false)
  %35 = getelementptr inbounds nuw %struct.BlockdevSnapshotSync, ptr %17, i32 0, i32 6
  %36 = load i32, ptr %15, align 4
  store i32 %36, ptr %35, align 4
  call void @llvm.lifetime.start.p0(i64 16, ptr %18) #16
  call void @llvm.memset.p0.i64(ptr align 8 %18, i8 0, i64 16, i1 false), !annotation !4
  %37 = getelementptr inbounds nuw %struct.TransactionAction, ptr %18, i32 0, i32 0
  store i32 10, ptr %37, align 8
  %38 = getelementptr i8, ptr %18, i64 4
  call void @llvm.memset.p0.i64(ptr align 4 %38, i8 0, i64 4, i1 false)
  %39 = getelementptr inbounds nuw %struct.TransactionAction, ptr %18, i32 0, i32 1
  %40 = getelementptr inbounds nuw %struct.BlockdevSnapshotSyncWrapper, ptr %39, i32 0, i32 0
  store ptr %17, ptr %40, align 8
  %41 = load ptr, ptr %16, align 8
  call void @blockdev_do_action(ptr noundef %18, ptr noundef %41)
  call void @llvm.lifetime.end.p0(i64 16, ptr %18) #16
  call void @llvm.lifetime.end.p0(i64 48, ptr %17) #16
  ret void
}