; Function Attrs: nounwind sspstrong uwtable
define dso_local void @qmp_blockdev_snapshot_sync(ptr noundef %0, ptr noundef %1, ptr noundef %2, ptr noundef %3, ptr noundef %4, i1 noundef zeroext %5, i32 noundef %6, ptr noundef %7) local_unnamed_addr #0 {
  %9 = alloca %struct.TransactionActionList, align 8
  %10 = alloca %struct.BlockdevSnapshotSync, align 8
  %11 = alloca %struct.TransactionAction, align 8
  %12 = zext i1 %5 to i8
  call void @llvm.lifetime.start.p0(i64 48, ptr nonnull %10) #14
  store ptr %0, ptr %10, align 8
  %13 = getelementptr inbounds nuw i8, ptr %10, i64 8
  store ptr %1, ptr %13, align 8
  %14 = getelementptr inbounds nuw i8, ptr %10, i64 16
  store ptr %2, ptr %14, align 8
  %15 = getelementptr inbounds nuw i8, ptr %10, i64 24
  store ptr %3, ptr %15, align 8
  %16 = getelementptr inbounds nuw i8, ptr %10, i64 32
  store ptr %4, ptr %16, align 8
  %17 = getelementptr inbounds nuw i8, ptr %10, i64 40
  store i8 %12, ptr %17, align 8
  %18 = getelementptr inbounds nuw i8, ptr %10, i64 41
  call void @llvm.memset.p0.i64(ptr noundef nonnull align 1 dereferenceable(3) %18, i8 0, i64 3, i1 false)
  %19 = getelementptr inbounds nuw i8, ptr %10, i64 44
  store i32 %6, ptr %19, align 4
  call void @llvm.lifetime.start.p0(i64 16, ptr nonnull %11) #14
  store i32 10, ptr %11, align 8
  %20 = getelementptr inbounds nuw i8, ptr %11, i64 4
  store i32 0, ptr %20, align 4
  %21 = getelementptr inbounds nuw i8, ptr %11, i64 8
  store ptr %10, ptr %21, align 8
  call void @llvm.lifetime.start.p0(i64 16, ptr nonnull %9) #14
  %22 = getelementptr inbounds nuw i8, ptr %9, i64 8
  store ptr %11, ptr %22, align 8
  store ptr null, ptr %9, align 8
  call void @qmp_transaction(ptr noundef nonnull %9, ptr noundef null, ptr noundef %7)
  call void @llvm.lifetime.end.p0(i64 16, ptr nonnull %9) #14
  call void @llvm.lifetime.end.p0(i64 16, ptr nonnull %11) #14
  call void @llvm.lifetime.end.p0(i64 48, ptr nonnull %10) #14
  ret void
}